; Function Attrs: mustprogress uwtable
define hidden noundef i32 @_ZN4cvc58internal6theory7strings5utils21getLoopMaxOccurrencesENS0_12NodeTemplateILb0EEE(ptr noundef nonnull %0) local_unnamed_addr #4 personality ptr @__gxx_personality_v0 {
  %2 = alloca %"class.cvc5::internal::NodeTemplate", align 8
  call void @llvm.lifetime.start.p0(i64 8, ptr nonnull %2) #23
  call void @_ZNK4cvc58internal12NodeTemplateILb0EE11getOperatorEv(ptr dead_on_unwind nonnull writable sret(%"class.cvc5::internal::NodeTemplate") align 8 %2, ptr noundef nonnull align 8 dereferenceable(8) %0)
  %3 = load ptr, ptr %2, align 8, !tbaa !8
  %4 = invoke noundef nonnull align 4 dereferenceable(8) ptr @_ZNK4cvc58internal4expr9NodeValue8getConstINS0_10RegExpLoopEEERKT_v(ptr noundef nonnull align 8 dereferenceable(24) %3)
          to label %_ZNK4cvc58internal12NodeTemplateILb1EE8getConstINS0_10RegExpLoopEEERKT_v.exit unwind label %20

_ZNK4cvc58internal12NodeTemplateILb1EE8getConstINS0_10RegExpLoopEEERKT_v.exit: ; preds = %1
  %5 = getelementptr inbounds nuw i8, ptr %4, i64 4
  %6 = load i32, ptr %5, align 4, !tbaa !250
  %7 = load ptr, ptr %2, align 8, !tbaa !8
  %8 = load i64, ptr %7, align 8
  %9 = and i64 %8, 1152920405095219200
  %.not.i.i = icmp eq i64 %9, 1152920405095219200
  br i1 %.not.i.i, label %_ZN4cvc58internal12NodeTemplateILb1EED2Ev.exit, label %10, !prof !16

10:                                               ; preds = %_ZNK4cvc58internal12NodeTemplateILb1EE8getConstINS0_10RegExpLoopEEERKT_v.exit
  %11 = add i64 %8, 1152920405095219200
  %12 = and i64 %11, 1152920405095219200
  %13 = and i64 %8, -1152920405095219201
  %14 = or disjoint i64 %12, %13
  store i64 %14, ptr %7, align 8
  %15 = icmp eq i64 %12, 0
  br i1 %15, label %16, label %_ZN4cvc58internal12NodeTemplateILb1EED2Ev.exit, !prof !16

16:                                               ; preds = %10
  invoke void @_ZN4cvc58internal4expr9NodeValue15markForDeletionEv(ptr noundef nonnull align 8 dereferenceable(24) %7)
          to label %_ZN4cvc58internal12NodeTemplateILb1EED2Ev.exit unwind label %17

17:                                               ; preds = %16
  %18 = landingpad { ptr, i32 }
          catch ptr null
  %19 = extractvalue { ptr, i32 } %18, 0
  call void @__clang_call_terminate(ptr %19) #24
  unreachable

_ZN4cvc58internal12NodeTemplateILb1EED2Ev.exit:   ; preds = %_ZNK4cvc58internal12NodeTemplateILb1EE8getConstINS0_10RegExpLoopEEERKT_v.exit, %10, %16
  call void @llvm.lifetime.end.p0(i64 8, ptr nonnull %2) #23
  ret i32 %6

20:                                               ; preds = %1
  %21 = landingpad { ptr, i32 }
          cleanup
  call void @_ZN4cvc58internal12NodeTemplateILb1EED2Ev(ptr noundef nonnull align 8 dereferenceable(8) %2) #23
  call void @llvm.lifetime.end.p0(i64 8, ptr nonnull %2) #23
  resume { ptr, i32 } %21
}